; Function Attrs: nounwind uwtable
define noundef nonnull ptr @l_Array_anyMUnsafe_any___at___private_Lean_Meta_CongrTheorems_0__Lean_Meta_hasCastLike___spec__1___boxed(ptr noundef %0, ptr noundef %1, ptr noundef %2) local_unnamed_addr #1 {
  %4 = getelementptr i8, ptr %1, i64 8
  %.val15 = load i64, ptr %4, align 8, !tbaa !16
  %5 = ptrtoint ptr %1 to i64
  %6 = and i64 %5, 1
  %.not = icmp eq i64 %6, 0
  br i1 %.not, label %7, label %lean_dec.exit10

7:                                                ; preds = %3
  %8 = load i32, ptr %1, align 4, !tbaa !4
  %9 = icmp sgt i32 %8, 1
  br i1 %9, label %10, label %12, !prof !9

10:                                               ; preds = %7
  %11 = add nsw i32 %8, -1
  store i32 %11, ptr %1, align 4, !tbaa !4
  br label %lean_dec.exit10

12:                                               ; preds = %7
  %.not.i = icmp eq i32 %8, 0
  br i1 %.not.i, label %lean_dec.exit10, label %13

13:                                               ; preds = %12
  tail call void @lean_dec_ref_cold(ptr noundef nonnull %1) #7
  br label %lean_dec.exit10

lean_dec.exit10:                                  ; preds = %13, %12, %10, %3
  %14 = getelementptr i8, ptr %2, i64 8
  %.val = load i64, ptr %14, align 8, !tbaa !16
  %15 = ptrtoint ptr %2 to i64
  %16 = and i64 %15, 1
  %.not17 = icmp eq i64 %16, 0
  br i1 %.not17, label %17, label %lean_dec.exit9

17:                                               ; preds = %lean_dec.exit10
  %18 = load i32, ptr %2, align 4, !tbaa !4
  %19 = icmp sgt i32 %18, 1
  br i1 %19, label %20, label %22, !prof !9

20:                                               ; preds = %17
  %21 = add nsw i32 %18, -1
  store i32 %21, ptr %2, align 4, !tbaa !4
  br label %lean_dec.exit9

22:                                               ; preds = %17
  %.not.i11 = icmp eq i32 %18, 0
  br i1 %.not.i11, label %lean_dec.exit9, label %23

23:                                               ; preds = %22
  tail call void @lean_dec_ref_cold(ptr noundef nonnull %2) #7
  br label %lean_dec.exit9

lean_dec.exit9:                                   ; preds = %23, %22, %20, %lean_dec.exit10
  %.not51.i = icmp eq i64 %.val15, %.val
  br i1 %.not51.i, label %l_Array_anyMUnsafe_any___at___private_Lean_Meta_CongrTheorems_0__Lean_Meta_hasCastLike___spec__1.exit, label %.lr.ph.i

.lr.ph.i:                                         ; preds = %lean_dec.exit9
  %24 = getelementptr inbounds nuw i8, ptr %0, i64 24
  br label %25

25:                                               ; preds = %44, %.lr.ph.i
  %.02352.i = phi i64 [ %.val15, %.lr.ph.i ], [ %45, %44 ]
  %26 = getelementptr inbounds nuw [0 x ptr], ptr %24, i64 0, i64 %.02352.i
  %27 = load ptr, ptr %26, align 8, !tbaa !10
  %28 = ptrtoint ptr %27 to i64
  %29 = and i64 %28, 1
  %.not.i39.i = icmp eq i64 %29, 0
  br i1 %.not.i39.i, label %30, label %lean_dec.exit32.i

30:                                               ; preds = %25
  %.val.i.i.i = load i32, ptr %27, align 4, !tbaa !4
  %31 = icmp sgt i32 %.val.i.i.i, 0
  br i1 %31, label %32, label %34, !prof !9

32:                                               ; preds = %30
  %33 = add nuw i32 %.val.i.i.i, 1
  store i32 %33, ptr %27, align 4, !tbaa !4
  br label %36

34:                                               ; preds = %30
  %.not.i.i.i = icmp eq i32 %.val.i.i.i, 0
  br i1 %.not.i.i.i, label %lean_dec.exit32.i, label %35

35:                                               ; preds = %34
  tail call void @lean_inc_ref_cold(ptr noundef nonnull %27) #7
  %.pr.i = load i32, ptr %27, align 4, !tbaa !4
  br label %36

36:                                               ; preds = %35, %32
  %37 = phi i32 [ %33, %32 ], [ %.pr.i, %35 ]
  %38 = icmp sgt i32 %37, 1
  br i1 %38, label %39, label %41, !prof !14

39:                                               ; preds = %36
  %40 = add nsw i32 %37, -1
  store i32 %40, ptr %27, align 4, !tbaa !4
  br label %lean_dec.exit32.i

41:                                               ; preds = %36
  %.not.i.i = icmp eq i32 %37, 0
  br i1 %.not.i.i, label %lean_dec.exit32.i, label %42

42:                                               ; preds = %41
  tail call void @lean_dec_ref_cold(ptr noundef nonnull %27) #7
  br label %lean_dec.exit32.i

lean_dec.exit32.i:                                ; preds = %42, %41, %39, %34, %25
  %43 = lshr i64 %28, 1
  %trunc.i = trunc i64 %43 to i8
  switch i8 %trunc.i, label %44 [
    i8 3, label %l_Array_anyMUnsafe_any___at___private_Lean_Meta_CongrTheorems_0__Lean_Meta_hasCastLike___spec__1.exit
    i8 5, label %l_Array_anyMUnsafe_any___at___private_Lean_Meta_CongrTheorems_0__Lean_Meta_hasCastLike___spec__1.exit
  ]

44:                                               ; preds = %lean_dec.exit32.i
  %45 = add i64 %.02352.i, 1
  %.not.i16 = icmp eq i64 %45, %.val
  br i1 %.not.i16, label %l_Array_anyMUnsafe_any___at___private_Lean_Meta_CongrTheorems_0__Lean_Meta_hasCastLike___spec__1.exit, label %25

l_Array_anyMUnsafe_any___at___private_Lean_Meta_CongrTheorems_0__Lean_Meta_hasCastLike___spec__1.exit: ; preds = %lean_dec.exit32.i, %lean_dec.exit32.i, %44, %lean_dec.exit9
  %.3.ph.i = phi i64 [ 1, %lean_dec.exit9 ], [ 1, %44 ], [ 3, %lean_dec.exit32.i ], [ 3, %lean_dec.exit32.i ]
  %46 = ptrtoint ptr %0 to i64
  %47 = and i64 %46, 1
  %.not18 = icmp eq i64 %47, 0
  br i1 %.not18, label %48, label %lean_dec.exit

48:                                               ; preds = %l_Array_anyMUnsafe_any___at___private_Lean_Meta_CongrTheorems_0__Lean_Meta_hasCastLike___spec__1.exit
  %49 = load i32, ptr %0, align 4, !tbaa !4
  %50 = icmp sgt i32 %49, 1
  br i1 %50, label %51, label %53, !prof !9

51:                                               ; preds = %48
  %52 = add nsw i32 %49, -1
  store i32 %52, ptr %0, align 4, !tbaa !4
  br label %lean_dec.exit

53:                                               ; preds = %48
  %.not.i13 = icmp eq i32 %49, 0
  br i1 %.not.i13, label %lean_dec.exit, label %54

54:                                               ; preds = %53
  tail call void @lean_dec_ref_cold(ptr noundef nonnull %0) #7
  br label %lean_dec.exit

lean_dec.exit:                                    ; preds = %54, %53, %51, %l_Array_anyMUnsafe_any___at___private_Lean_Meta_CongrTheorems_0__Lean_Meta_hasCastLike___spec__1.exit
  %55 = inttoptr i64 %.3.ph.i to ptr
  ret ptr %55
}